target datalayout = "e-m:e-p270:32:32-p271:32:32-p272:64:64-i64:64-i128:128-f80:128-n8:16:32:64-S128"
target triple = "x86_64-pc-linux-gnu"

%struct.X509V3_CONF_METHOD_st = type { ptr, ptr, ptr, ptr }
%struct.v3_ext_ctx = type { i32, ptr, ptr, ptr, ptr, ptr, ptr, ptr }

@.str = private unnamed_addr constant [33 x i8] c"../openssl/crypto/x509/v3_conf.c\00", align 1
@__func__.X509V3_get_string = private unnamed_addr constant [18 x i8] c"X509V3_get_string\00", align 1

; Function Attrs: nounwind uwtable
define ptr @X509V3_get_string(ptr noundef %0, ptr noundef %1, ptr noundef %2) #0 {
  %4 = alloca ptr, align 8
  %5 = alloca ptr, align 8
  %6 = alloca ptr, align 8
  %7 = alloca ptr, align 8
  store ptr %0, ptr %5, align 8, !tbaa !8
  store ptr %1, ptr %6, align 8, !tbaa !10
  store ptr %2, ptr %7, align 8, !tbaa !10
  %8 = load ptr, ptr %5, align 8, !tbaa !8
  %9 = getelementptr inbounds nuw %struct.v3_ext_ctx, ptr %8, i32 0, i32 6
  %10 = load ptr, ptr %9, align 8, !tbaa !40
  %11 = icmp ne ptr %10, null
  br i1 %11, label %12, label %24

12:                                               ; preds = %3
  %13 = load ptr, ptr %5, align 8, !tbaa !8
  %14 = getelementptr inbounds nuw %struct.v3_ext_ctx, ptr %13, i32 0, i32 5
  %15 = load ptr, ptr %14, align 8, !tbaa !47
  %16 = icmp ne ptr %15, null
  br i1 %16, label %17, label %24

17:                                               ; preds = %12
  %18 = load ptr, ptr %5, align 8, !tbaa !8
  %19 = getelementptr inbounds nuw %struct.v3_ext_ctx, ptr %18, i32 0, i32 5
  %20 = load ptr, ptr %19, align 8, !tbaa !47
  %21 = getelementptr inbounds nuw %struct.X509V3_CONF_METHOD_st, ptr %20, i32 0, i32 0
  %22 = load ptr, ptr %21, align 8, !tbaa !66
  %23 = icmp ne ptr %22, null
  br i1 %23, label %25, label %24

24:                                               ; preds = %17, %12, %3
  call void @ERR_new()
  call void @ERR_set_debug(ptr noundef @.str, i32 noundef 402, ptr noundef @__func__.X509V3_get_string)
  call void (i32, i32, ptr, ...) @ERR_set_error(i32 noundef 34, i32 noundef 148, ptr noundef null)
  store ptr null, ptr %4, align 8
  br label %45

25:                                               ; preds = %17
  %26 = load ptr, ptr %5, align 8, !tbaa !8
  %27 = getelementptr inbounds nuw %struct.v3_ext_ctx, ptr %26, i32 0, i32 5
  %28 = load ptr, ptr %27, align 8, !tbaa !47
  %29 = getelementptr inbounds nuw %struct.X509V3_CONF_METHOD_st, ptr %28, i32 0, i32 0
  %30 = load ptr, ptr %29, align 8, !tbaa !66
  %31 = icmp ne ptr %30, null
  br i1 %31, label %32, label %44

32:                                               ; preds = %25
  %33 = load ptr, ptr %5, align 8, !tbaa !8
  %34 = getelementptr inbounds nuw %struct.v3_ext_ctx, ptr %33, i32 0, i32 5
  %35 = load ptr, ptr %34, align 8, !tbaa !47
  %36 = getelementptr inbounds nuw %struct.X509V3_CONF_METHOD_st, ptr %35, i32 0, i32 0
  %37 = load ptr, ptr %36, align 8, !tbaa !66
  %38 = load ptr, ptr %5, align 8, !tbaa !8
  %39 = getelementptr inbounds nuw %struct.v3_ext_ctx, ptr %38, i32 0, i32 6
  %40 = load ptr, ptr %39, align 8, !tbaa !40
  %41 = load ptr, ptr %6, align 8, !tbaa !10
  %42 = load ptr, ptr %7, align 8, !tbaa !10
  %43 = call ptr %37(ptr noundef %40, ptr noundef %41, ptr noundef %42)
  store ptr %43, ptr %4, align 8
  br label %45

44:                                               ; preds = %25
  store ptr null, ptr %4, align 8
  br label %45

45:                                               ; preds = %44, %32, %24
  %46 = load ptr, ptr %4, align 8
  ret ptr %46
}