; Function Attrs: nounwind uwtable
define ptr @X509V3_get_string(ptr noundef readonly captures(none) %0, ptr noundef %1, ptr noundef %2) local_unnamed_addr #0 {
  %4 = getelementptr inbounds nuw i8, ptr %0, i64 48
  %5 = load ptr, ptr %4, align 8, !tbaa !22
  %.not = icmp eq ptr %5, null
  br i1 %.not, label %11, label %6

6:                                                ; preds = %3
  %7 = getelementptr inbounds nuw i8, ptr %0, i64 40
  %8 = load ptr, ptr %7, align 8, !tbaa !29
  %.not12 = icmp eq ptr %8, null
  br i1 %.not12, label %11, label %9

9:                                                ; preds = %6
  %10 = load ptr, ptr %8, align 8, !tbaa !43
  %.not13 = icmp eq ptr %10, null
  br i1 %.not13, label %11, label %12

11:                                               ; preds = %9, %6, %3
  tail call void @ERR_new() #6
  tail call void @ERR_set_debug(ptr noundef nonnull @.str, i32 noundef 402, ptr noundef nonnull @__func__.X509V3_get_string) #6
  tail call void (i32, i32, ptr, ...) @ERR_set_error(i32 noundef 34, i32 noundef 148, ptr noundef null) #6
  br label %14

12:                                               ; preds = %9
  %13 = tail call ptr %10(ptr noundef nonnull %5, ptr noundef %1, ptr noundef %2) #6
  br label %14

14:                                               ; preds = %12, %11
  %.0 = phi ptr [ %13, %12 ], [ null, %11 ]
  ret ptr %.0
}